target datalayout = "e-m:e-p270:32:32-p271:32:32-p272:64:64-i64:64-i128:128-f80:128-n8:16:32:64-S128"
target triple = "x86_64-pc-linux-gnu"

%struct.ssl_cipher_st = type { i32, ptr, ptr, i32, i32, i32, i32, i32, i32, i32, i32, i32, i32, i32, i32, i32 }

; Function Attrs: nounwind uwtable
define ptr @ossl_quic_get_cipher_by_char(ptr noundef %0) #0 {
  %2 = alloca ptr, align 8
  %3 = alloca ptr, align 8
  %4 = alloca ptr, align 8
  %5 = alloca i32, align 4
  store ptr %0, ptr %3, align 8, !tbaa !121
  call void @llvm.lifetime.start.p0(i64 8, ptr %4) #10
  %6 = load ptr, ptr %3, align 8, !tbaa !121
  %7 = call ptr @ssl3_get_cipher_by_char(ptr noundef %6)
  store ptr %7, ptr %4, align 8, !tbaa !292
  %8 = load ptr, ptr %4, align 8, !tbaa !292
  %9 = getelementptr inbounds nuw %struct.ssl_cipher_st, ptr %8, i32 0, i32 13
  %10 = load i32, ptr %9, align 8, !tbaa !293
  %11 = and i32 %10, 262144
  %12 = icmp eq i32 %11, 0
  br i1 %12, label %13, label %14

13:                                               ; preds = %1
  store ptr null, ptr %2, align 8
  store i32 1, ptr %5, align 4
  br label %16

14:                                               ; preds = %1
  %15 = load ptr, ptr %4, align 8, !tbaa !292
  store ptr %15, ptr %2, align 8
  store i32 1, ptr %5, align 4
  br label %16

16:                                               ; preds = %14, %13
  call void @llvm.lifetime.end.p0(i64 8, ptr %4) #10
  %17 = load ptr, ptr %2, align 8
  ret ptr %17
}