; Function Attrs: nounwind uwtable
define ptr @ossl_quic_get_cipher_by_char(ptr noundef %0) local_unnamed_addr #0 {
  %2 = tail call ptr @ssl3_get_cipher_by_char(ptr noundef %0) #12
  %3 = getelementptr inbounds nuw i8, ptr %2, i64 64
  %4 = load i32, ptr %3, align 8, !tbaa !244
  %5 = and i32 %4, 262144
  %6 = icmp eq i32 %5, 0
  %. = select i1 %6, ptr null, ptr %2
  ret ptr %.
}